; Function Attrs: nounwind sspstrong uwtable
define dso_local void @vfio_vga_write(ptr noundef readonly captures(none) %opaque, i64 noundef %addr, i64 noundef %data, i32 noundef %size) #0 {
entry:
  %_now.i.i = alloca %struct.timeval, align 8
  %buf = alloca %union.anon.2, align 8
  %nr = getelementptr inbounds nuw i8, ptr %opaque, i64 280
  %0 = load i32, ptr %nr, align 8
  %conv = sext i32 %0 to i64
  %.neg = mul nsw i64 %conv, -304
  %1 = getelementptr i8, ptr %opaque, i64 %.neg
  %add.ptr = getelementptr i8, ptr %1, i64 -16
  %2 = load i64, ptr %add.ptr, align 16
  %offset1 = getelementptr inbounds nuw i8, ptr %opaque, i64 272
  %3 = load i64, ptr %offset1, align 16
  %add = add i64 %2, %addr
  %add2 = add i64 %add, %3
  switch i32 %size, label %sw.default [
    i32 1, label %sw.bb
    i32 2, label %sw.bb4
    i32 4, label %sw.bb6
  ]

sw.bb:                                            ; preds = %entry
  %conv3 = trunc i64 %data to i8
  store i8 %conv3, ptr %buf, align 8
  br label %sw.epilog

sw.bb4:                                           ; preds = %entry
  %conv5 = trunc i64 %data to i16
  store i16 %conv5, ptr %buf, align 8
  br label %sw.epilog

sw.bb6:                                           ; preds = %entry
  %conv7 = trunc i64 %data to i32
  store i32 %conv7, ptr %buf, align 8
  br label %sw.epilog

sw.default:                                       ; preds = %entry
  tail call void (ptr, ...) @hw_error(ptr noundef nonnull @.str, i32 noundef %size) #22
  unreachable

sw.epilog:                                        ; preds = %sw.bb6, %sw.bb4, %sw.bb
  %fd = getelementptr i8, ptr %1, i64 -8
  %4 = load i32, ptr %fd, align 8
  %conv9 = zext nneg i32 %size to i64
  %call10 = call i64 @pwrite64(i32 noundef %4, ptr noundef nonnull %buf, i64 noundef %conv9, i64 noundef %add2) #23
  %cmp.not = icmp eq i64 %call10, %conv9
  br i1 %cmp.not, label %if.end, label %if.then

if.then:                                          ; preds = %sw.epilog
  %5 = load i64, ptr %offset1, align 16
  %add14 = add i64 %5, %addr
  call void (ptr, ...) @error_report(ptr noundef nonnull @.str.1, ptr noundef nonnull @__func__.vfio_vga_write, i64 noundef %add14, i64 noundef %data, i32 noundef %size) #23
  br label %if.end

if.end:                                           ; preds = %if.then, %sw.epilog
  %6 = load i64, ptr %offset1, align 16
  %add16 = add i64 %6, %addr
  call void @llvm.lifetime.start.p0(i64 16, ptr nonnull %_now.i.i)
  %7 = load i32, ptr @trace_events_enabled_count, align 4
  %tobool.i.i = icmp ne i32 %7, 0
  %8 = load i16, ptr @_TRACE_VFIO_VGA_WRITE_DSTATE, align 2
  %tobool4.i.i = icmp ne i16 %8, 0
  %or.cond.i.i = select i1 %tobool.i.i, i1 %tobool4.i.i, i1 false
  br i1 %or.cond.i.i, label %land.lhs.true5.i.i, label %trace_vfio_vga_write.exit

land.lhs.true5.i.i:                               ; preds = %if.end
  %9 = load i32, ptr @qemu_loglevel, align 4
  %and.i.i.i = and i32 %9, 32768
  %cmp.i.not.i.i = icmp eq i32 %and.i.i.i, 0
  br i1 %cmp.i.not.i.i, label %trace_vfio_vga_write.exit, label %if.then.i.i

if.then.i.i:                                      ; preds = %land.lhs.true5.i.i
  %10 = load i8, ptr @message_with_timestamp, align 1
  %tobool7.i.i = trunc i8 %10 to i1
  br i1 %tobool7.i.i, label %if.then8.i.i, label %if.else.i.i

if.then8.i.i:                                     ; preds = %if.then.i.i
  %call9.i.i = call i32 @gettimeofday(ptr noundef nonnull %_now.i.i, ptr noundef null) #23
  %call10.i.i = call i32 @qemu_get_thread_id() #23
  %11 = load i64, ptr %_now.i.i, align 8
  %tv_usec.i.i = getelementptr inbounds nuw i8, ptr %_now.i.i, i64 8
  %12 = load i64, ptr %tv_usec.i.i, align 8
  call void (ptr, ...) @qemu_log(ptr noundef nonnull @.str.18, i32 noundef %call10.i.i, i64 noundef %11, i64 noundef %12, i64 noundef %add16, i64 noundef %data, i32 noundef %size) #23
  br label %trace_vfio_vga_write.exit

if.else.i.i:                                      ; preds = %if.then.i.i
  call void (ptr, ...) @qemu_log(ptr noundef nonnull @.str.19, i64 noundef %add16, i64 noundef %data, i32 noundef %size) #23
  br label %trace_vfio_vga_write.exit

trace_vfio_vga_write.exit:                        ; preds = %if.end, %land.lhs.true5.i.i, %if.then8.i.i, %if.else.i.i
  call void @llvm.lifetime.end.p0(i64 16, ptr nonnull %_now.i.i)
  ret void
}